target datalayout = "e-m:e-p270:32:32-p271:32:32-p272:64:64-i64:64-i128:128-f80:128-n8:16:32:64-S128"
target triple = "x86_64-unknown-linux-gnu"

@_ZN2EA6Thread9ConditionD1Ev = dso_local unnamed_addr alias void (ptr), ptr @_ZN2EA6Thread9ConditionD2Ev

; Function Attrs: mustprogress uwtable
define dso_local void @_ZN2EA6Thread16ConditionFactory16DestroyConditionEPNS0_9ConditionE(ptr noundef %pCondition) #3 align 2 {
entry:
  %pCondition.addr = alloca ptr, align 8
  %pAllocator = alloca ptr, align 8
  store ptr %pCondition, ptr %pCondition.addr, align 8
  %call = call noundef ptr @_ZN2EA6Thread12GetAllocatorEv()
  store ptr %call, ptr %pAllocator, align 8
  %0 = load ptr, ptr %pAllocator, align 8
  %tobool = icmp ne ptr %0, null
  br i1 %tobool, label %if.then, label %if.else

if.then:                                          ; preds = %entry
  %1 = load ptr, ptr %pCondition.addr, align 8
  call void @_ZN2EA6Thread9ConditionD1Ev(ptr noundef nonnull align 8 dereferenceable(48) %1) #8
  %2 = load ptr, ptr %pAllocator, align 8
  %3 = load ptr, ptr %pCondition.addr, align 8
  %vtable = load ptr, ptr %2, align 8
  %vfn = getelementptr inbounds ptr, ptr %vtable, i64 4
  %4 = load ptr, ptr %vfn, align 8
  call void %4(ptr noundef nonnull align 8 dereferenceable(8) %2, ptr noundef %3, i64 noundef 0)
  br label %if.end

if.else:                                          ; preds = %entry
  %5 = load ptr, ptr %pCondition.addr, align 8
  %isnull = icmp eq ptr %5, null
  br i1 %isnull, label %delete.end, label %delete.notnull

delete.notnull:                                   ; preds = %if.else
  call void @_ZN2EA6Thread9ConditionD1Ev(ptr noundef nonnull align 8 dereferenceable(48) %5) #8
  call void @_ZdlPv(ptr noundef %5) #10
  br label %delete.end

delete.end:                                       ; preds = %delete.notnull, %if.else
  br label %if.end

if.end:                                           ; preds = %delete.end, %if.then
  ret void
}