; Function Attrs: mustprogress uwtable
define dso_local void @_ZN2EA6Thread16ConditionFactory16DestroyConditionEPNS0_9ConditionE(ptr noundef %pCondition) local_unnamed_addr #4 align 2 {
entry:
  %call = tail call noundef ptr @_ZN2EA6Thread12GetAllocatorEv()
  %tobool.not = icmp eq ptr %call, null
  br i1 %tobool.not, label %if.else, label %if.then

if.then:                                          ; preds = %entry
  %call.i = tail call i32 @pthread_cond_destroy(ptr noundef nonnull align 8 dereferenceable(48) %pCondition) #10
  %vtable = load ptr, ptr %call, align 8
  %vfn = getelementptr inbounds nuw i8, ptr %vtable, i64 32
  %0 = load ptr, ptr %vfn, align 8
  tail call void %0(ptr noundef nonnull align 8 dereferenceable(8) %call, ptr noundef nonnull %pCondition, i64 noundef 0)
  br label %if.end

if.else:                                          ; preds = %entry
  %isnull = icmp eq ptr %pCondition, null
  br i1 %isnull, label %if.end, label %delete.notnull

delete.notnull:                                   ; preds = %if.else
  %call.i4 = tail call i32 @pthread_cond_destroy(ptr noundef nonnull align 8 dereferenceable(48) %pCondition) #10
  tail call void @_ZdlPv(ptr noundef nonnull %pCondition) #12
  br label %if.end

if.end:                                           ; preds = %if.else, %delete.notnull, %if.then
  ret void
}